; Function Attrs: nounwind uwtable
define internal fastcc range(i32 0, 2) i32 @have_cipher(ptr noundef %0) unnamed_addr #0 {
  %2 = alloca ptr, align 8
  call void @llvm.lifetime.start.p0(i64 8, ptr nonnull %2) #14
  store ptr null, ptr %2, align 8, !tbaa !9
  %3 = call i32 @opt_cipher_silent(ptr noundef %0, ptr noundef nonnull %2) #14
  %.not = icmp eq i32 %3, 0
  br i1 %.not, label %12, label %4

4:                                                ; preds = %1
  %5 = call ptr @EVP_CIPHER_CTX_new() #14
  %.not5 = icmp eq ptr %5, null
  br i1 %.not5, label %10, label %6

6:                                                ; preds = %4
  %7 = load ptr, ptr %2, align 8, !tbaa !9
  %8 = call i32 @EVP_CipherInit_ex(ptr noundef nonnull %5, ptr noundef %7, ptr noundef null, ptr noundef null, ptr noundef null, i32 noundef 1) #14
  %9 = icmp sgt i32 %8, 0
  %spec.select = zext i1 %9 to i32
  br label %10

10:                                               ; preds = %6, %4
  %.1 = phi i32 [ 0, %4 ], [ %spec.select, %6 ]
  call void @EVP_CIPHER_CTX_free(ptr noundef %5) #14
  %11 = load ptr, ptr %2, align 8, !tbaa !9
  call void @EVP_CIPHER_free(ptr noundef %11) #14
  br label %12

12:                                               ; preds = %10, %1
  %.0 = phi i32 [ %.1, %10 ], [ 0, %1 ]
  call void @llvm.lifetime.end.p0(i64 8, ptr nonnull %2) #14
  ret i32 %.0
}